target datalayout = "e-m:e-p270:32:32-p271:32:32-p272:64:64-i64:64-i128:128-f80:128-n8:16:32:64-S128"
target triple = "x86_64-pc-linux-gnu"

%struct.X11GraphicsConfigIDs = type { ptr, ptr }
%struct.JNINativeInterface_ = type { ptr, ptr, ptr, ptr, ptr, ptr, ptr, ptr, ptr, ptr, ptr, ptr, ptr, ptr, ptr, ptr, ptr, ptr, ptr, ptr, ptr, ptr, ptr, ptr, ptr, ptr, ptr, ptr, ptr, ptr, ptr, ptr, ptr, ptr, ptr, ptr, ptr, ptr, ptr, ptr, ptr, ptr, ptr, ptr, ptr, ptr, ptr, ptr, ptr, ptr, ptr, ptr, ptr, ptr, ptr, ptr, ptr, ptr, ptr, ptr, ptr, ptr, ptr, ptr, ptr, ptr, ptr, ptr, ptr, ptr, ptr, ptr, ptr, ptr, ptr, ptr, ptr, ptr, ptr, ptr, ptr, ptr, ptr, ptr, ptr, ptr, ptr, ptr, ptr, ptr, ptr, ptr, ptr, ptr, ptr, ptr, ptr, ptr, ptr, ptr, ptr, ptr, ptr, ptr, ptr, ptr, ptr, ptr, ptr, ptr, ptr, ptr, ptr, ptr, ptr, ptr, ptr, ptr, ptr, ptr, ptr, ptr, ptr, ptr, ptr, ptr, ptr, ptr, ptr, ptr, ptr, ptr, ptr, ptr, ptr, ptr, ptr, ptr, ptr, ptr, ptr, ptr, ptr, ptr, ptr, ptr, ptr, ptr, ptr, ptr, ptr, ptr, ptr, ptr, ptr, ptr, ptr, ptr, ptr, ptr, ptr, ptr, ptr, ptr, ptr, ptr, ptr, ptr, ptr, ptr, ptr, ptr, ptr, ptr, ptr, ptr, ptr, ptr, ptr, ptr, ptr, ptr, ptr, ptr, ptr, ptr, ptr, ptr, ptr, ptr, ptr, ptr, ptr, ptr, ptr, ptr, ptr, ptr, ptr, ptr, ptr, ptr, ptr, ptr, ptr, ptr, ptr, ptr, ptr, ptr, ptr, ptr, ptr, ptr, ptr, ptr, ptr, ptr, ptr, ptr, ptr, ptr, ptr, ptr, ptr, ptr, ptr, ptr, ptr, ptr, ptr, ptr, ptr, ptr, ptr }
%struct._AwtScreenData = type { i32, i64, i64, i64, ptr, ptr }
%struct.XVisualInfo = type { ptr, i64, i32, i32, i32, i64, i64, i64, i32, i32 }
%struct._AwtGraphicsConfigData = type { i32, i64, %struct.XVisualInfo, i32, ptr, ptr, ptr, i64, i32, i32, ptr, i32, ptr, ptr, i32, %struct.XRenderPictFormat }
%struct.XRenderPictFormat = type { i64, i32, i32, %struct.XRenderDirectFormat, i64 }
%struct.XRenderDirectFormat = type { i16, i16, i16, i16, i16, i16, i16, i16 }
%struct._XImage = type { i32, i32, i32, i32, ptr, i32, i32, i32, i32, i32, i32, i32, i64, i64, i64, ptr, %struct.funcs }
%struct.funcs = type { ptr, ptr, ptr, ptr, ptr, ptr }

@x11GraphicsConfigIDs = hidden global %struct.X11GraphicsConfigIDs zeroinitializer, align 8
@x11Screens = hidden global ptr null, align 8
@awt_display = hidden global ptr null, align 8
@.str.24 = private unnamed_addr constant [25 x i8] c"Unknown Visual Specified\00", align 1

; Function Attrs: nounwind uwtable
define void @Java_sun_awt_X11GraphicsConfig_init(ptr noundef %0, ptr noundef %1, i32 noundef %2, i32 noundef %3) #0 {
  %5 = alloca ptr, align 8
  %6 = alloca ptr, align 8
  %7 = alloca i32, align 4
  %8 = alloca i32, align 4
  %9 = alloca ptr, align 8
  %10 = alloca %struct._AwtScreenData, align 8
  %11 = alloca i32, align 4
  %12 = alloca i32, align 4
  %13 = alloca ptr, align 8
  %14 = alloca ptr, align 8
  store ptr %0, ptr %5, align 8
  store ptr %1, ptr %6, align 8
  store i32 %2, ptr %7, align 4
  store i32 %3, ptr %8, align 4
  store ptr null, ptr %9, align 8
  %15 = load ptr, ptr @x11Screens, align 8
  %16 = load i32, ptr %8, align 4
  %17 = sext i32 %16 to i64
  %18 = getelementptr inbounds %struct._AwtScreenData, ptr %15, i64 %17
  call void @llvm.memcpy.p0.p0.i64(ptr align 8 %10, ptr align 8 %18, i64 48, i1 false)
  %19 = getelementptr inbounds %struct._AwtScreenData, ptr %10, i32 0, i32 0
  %20 = load i32, ptr %19, align 8
  %21 = icmp eq i32 %20, 0
  br i1 %21, label %22, label %25

22:                                               ; preds = %4
  %23 = load ptr, ptr %5, align 8
  %24 = load i32, ptr %8, align 4
  call void @getAllConfigs(ptr noundef %23, i32 noundef %24, ptr noundef %10)
  br label %25

25:                                               ; preds = %22, %4
  store i32 0, ptr %11, align 4
  br label %26

26:                                               ; preds = %48, %25
  %27 = load i32, ptr %11, align 4
  %28 = getelementptr inbounds %struct._AwtScreenData, ptr %10, i32 0, i32 0
  %29 = load i32, ptr %28, align 8
  %30 = icmp slt i32 %27, %29
  br i1 %30, label %31, label %51

31:                                               ; preds = %26
  %32 = getelementptr inbounds %struct._AwtScreenData, ptr %10, i32 0, i32 5
  %33 = load ptr, ptr %32, align 8
  %34 = load i32, ptr %11, align 4
  %35 = sext i32 %34 to i64
  %36 = getelementptr inbounds ptr, ptr %33, i64 %35
  %37 = load ptr, ptr %36, align 8
  store ptr %37, ptr %14, align 8
  %38 = load ptr, ptr %14, align 8
  %39 = getelementptr inbounds %struct._AwtGraphicsConfigData, ptr %38, i32 0, i32 2
  %40 = getelementptr inbounds %struct.XVisualInfo, ptr %39, i32 0, i32 1
  %41 = load i64, ptr %40, align 8
  %42 = trunc i64 %41 to i32
  %43 = load i32, ptr %7, align 4
  %44 = icmp eq i32 %42, %43
  br i1 %44, label %45, label %47

45:                                               ; preds = %31
  %46 = load ptr, ptr %14, align 8
  store ptr %46, ptr %9, align 8
  br label %51

47:                                               ; preds = %31
  br label %48

48:                                               ; preds = %47
  %49 = load i32, ptr %11, align 4
  %50 = add nsw i32 %49, 1
  store i32 %50, ptr %11, align 4
  br label %26, !llvm.loop !9

51:                                               ; preds = %45, %26
  %52 = load ptr, ptr %9, align 8
  %53 = icmp eq ptr %52, null
  br i1 %53, label %54, label %56

54:                                               ; preds = %51
  %55 = load ptr, ptr %5, align 8
  call void @JNU_ThrowIllegalArgumentException(ptr noundef %55, ptr noundef @.str.24)
  br label %100

56:                                               ; preds = %51
  %57 = load ptr, ptr %5, align 8
  %58 = load ptr, ptr %57, align 8
  %59 = getelementptr inbounds %struct.JNINativeInterface_, ptr %58, i32 0, i32 110
  %60 = load ptr, ptr %59, align 8
  %61 = load ptr, ptr %5, align 8
  %62 = load ptr, ptr %6, align 8
  %63 = load ptr, ptr @x11GraphicsConfigIDs, align 8
  %64 = load ptr, ptr %9, align 8
  %65 = ptrtoint ptr %64 to i64
  call void %60(ptr noundef %61, ptr noundef %62, ptr noundef %63, i64 noundef %65)
  %66 = load ptr, ptr %9, align 8
  %67 = getelementptr inbounds %struct._AwtGraphicsConfigData, ptr %66, i32 0, i32 2
  %68 = getelementptr inbounds %struct.XVisualInfo, ptr %67, i32 0, i32 3
  %69 = load i32, ptr %68, align 4
  store i32 %69, ptr %12, align 4
  %70 = load ptr, ptr @awt_display, align 8
  %71 = load ptr, ptr %9, align 8
  %72 = getelementptr inbounds %struct._AwtGraphicsConfigData, ptr %71, i32 0, i32 2
  %73 = getelementptr inbounds %struct.XVisualInfo, ptr %72, i32 0, i32 0
  %74 = load ptr, ptr %73, align 8
  %75 = load i32, ptr %12, align 4
  %76 = call ptr @XCreateImage(ptr noundef %70, ptr noundef %74, i32 noundef %75, i32 noundef 2, i32 noundef 0, ptr noundef null, i32 noundef 1, i32 noundef 1, i32 noundef 32, i32 noundef 0)
  store ptr %76, ptr %13, align 8
  %77 = load ptr, ptr %13, align 8
  %78 = getelementptr inbounds %struct._XImage, ptr %77, i32 0, i32 11
  %79 = load i32, ptr %78, align 8
  %80 = add nsw i32 %79, 7
  %81 = sdiv i32 %80, 8
  %82 = load ptr, ptr %9, align 8
  %83 = getelementptr inbounds %struct._AwtGraphicsConfigData, ptr %82, i32 0, i32 11
  store i32 %81, ptr %83, align 8
  %84 = load ptr, ptr %5, align 8
  %85 = load ptr, ptr %84, align 8
  %86 = getelementptr inbounds %struct.JNINativeInterface_, ptr %85, i32 0, i32 109
  %87 = load ptr, ptr %86, align 8
  %88 = load ptr, ptr %5, align 8
  %89 = load ptr, ptr %6, align 8
  %90 = load ptr, ptr getelementptr inbounds (%struct.X11GraphicsConfigIDs, ptr @x11GraphicsConfigIDs, i32 0, i32 1), align 8
  %91 = load ptr, ptr %13, align 8
  %92 = getelementptr inbounds %struct._XImage, ptr %91, i32 0, i32 11
  %93 = load i32, ptr %92, align 8
  call void %87(ptr noundef %88, ptr noundef %89, ptr noundef %90, i32 noundef %93)
  %94 = load ptr, ptr %13, align 8
  %95 = getelementptr inbounds %struct._XImage, ptr %94, i32 0, i32 16
  %96 = getelementptr inbounds %struct.funcs, ptr %95, i32 0, i32 1
  %97 = load ptr, ptr %96, align 8
  %98 = load ptr, ptr %13, align 8
  %99 = call i32 %97(ptr noundef %98)
  br label %100

100:                                              ; preds = %56, %54
  ret void
}