; Function Attrs: nounwind uwtable
define void @Java_sun_awt_X11GraphicsConfig_init(ptr noundef %0, ptr noundef %1, i32 noundef %2, i32 noundef %3) local_unnamed_addr #0 {
  %5 = alloca %struct._AwtScreenData, align 8
  %6 = load ptr, ptr @x11Screens, align 8
  %7 = sext i32 %3 to i64
  %8 = getelementptr inbounds %struct._AwtScreenData, ptr %6, i64 %7
  call void @llvm.memcpy.p0.p0.i64(ptr noundef nonnull align 8 dereferenceable(48) %5, ptr noundef nonnull align 8 dereferenceable(48) %8, i64 48, i1 false)
  %9 = load i32, ptr %5, align 8
  %10 = icmp eq i32 %9, 0
  br i1 %10, label %11, label %12

11:                                               ; preds = %4
  call fastcc void @getAllConfigs(ptr noundef %0, i32 noundef %3, ptr noundef nonnull %5)
  %.pre = load i32, ptr %5, align 8
  br label %12

12:                                               ; preds = %11, %4
  %13 = phi i32 [ %.pre, %11 ], [ %9, %4 ]
  %14 = icmp sgt i32 %13, 0
  br i1 %14, label %.lr.ph, label %._crit_edge

.lr.ph:                                           ; preds = %12
  %15 = getelementptr inbounds i8, ptr %5, i64 40
  %16 = load ptr, ptr %15, align 8
  %wide.trip.count = zext nneg i32 %13 to i64
  br label %18

17:                                               ; preds = %18
  %indvars.iv.next = add nuw nsw i64 %indvars.iv, 1
  %exitcond.not = icmp eq i64 %indvars.iv.next, %wide.trip.count
  br i1 %exitcond.not, label %._crit_edge, label %18, !llvm.loop !9

18:                                               ; preds = %.lr.ph, %17
  %indvars.iv = phi i64 [ 0, %.lr.ph ], [ %indvars.iv.next, %17 ]
  %19 = getelementptr inbounds ptr, ptr %16, i64 %indvars.iv
  %20 = load ptr, ptr %19, align 8
  %21 = getelementptr inbounds i8, ptr %20, i64 24
  %22 = load i64, ptr %21, align 8
  %23 = trunc i64 %22 to i32
  %24 = icmp eq i32 %23, %2
  br i1 %24, label %25, label %17

._crit_edge:                                      ; preds = %17, %12
  tail call void @JNU_ThrowIllegalArgumentException(ptr noundef %0, ptr noundef nonnull @.str.24) #17
  br label %50

25:                                               ; preds = %18
  %26 = load ptr, ptr %0, align 8
  %27 = getelementptr inbounds i8, ptr %26, i64 880
  %28 = load ptr, ptr %27, align 8
  %29 = load ptr, ptr @x11GraphicsConfigIDs, align 8
  %30 = ptrtoint ptr %20 to i64
  tail call void %28(ptr noundef nonnull %0, ptr noundef %1, ptr noundef %29, i64 noundef %30) #17
  %31 = getelementptr inbounds i8, ptr %20, i64 16
  %32 = getelementptr inbounds i8, ptr %20, i64 36
  %33 = load i32, ptr %32, align 4
  %34 = load ptr, ptr @awt_display, align 8
  %35 = load ptr, ptr %31, align 8
  %36 = tail call ptr @XCreateImage(ptr noundef %34, ptr noundef %35, i32 noundef %33, i32 noundef 2, i32 noundef 0, ptr noundef null, i32 noundef 1, i32 noundef 1, i32 noundef 32, i32 noundef 0) #17
  %37 = getelementptr inbounds i8, ptr %36, i64 48
  %38 = load i32, ptr %37, align 8
  %39 = add nsw i32 %38, 7
  %40 = sdiv i32 %39, 8
  %41 = getelementptr inbounds i8, ptr %20, i64 136
  store i32 %40, ptr %41, align 8
  %42 = load ptr, ptr %0, align 8
  %43 = getelementptr inbounds i8, ptr %42, i64 872
  %44 = load ptr, ptr %43, align 8
  %45 = load ptr, ptr getelementptr inbounds (i8, ptr @x11GraphicsConfigIDs, i64 8), align 8
  %46 = load i32, ptr %37, align 8
  tail call void %44(ptr noundef nonnull %0, ptr noundef %1, ptr noundef %45, i32 noundef %46) #17
  %47 = getelementptr inbounds i8, ptr %36, i64 96
  %48 = load ptr, ptr %47, align 8
  %49 = tail call i32 %48(ptr noundef %36) #17
  br label %50

50:                                               ; preds = %25, %._crit_edge
  ret void
}